target datalayout = "e-m:e-p270:32:32-p271:32:32-p272:64:64-i64:64-i128:128-f80:128-n8:16:32:64-S128"
target triple = "x86_64-pc-linux-gnu"

%"class.std::vector.3" = type { %"struct.std::_Vector_base.4" }
%"struct.std::_Vector_base.4" = type { %"struct.std::_Vector_base<ggml_backend_feature, std::allocator<ggml_backend_feature>>::_Vector_impl" }
%"struct.std::_Vector_base<ggml_backend_feature, std::allocator<ggml_backend_feature>>::_Vector_impl" = type { %"struct.std::_Vector_base<ggml_backend_feature, std::allocator<ggml_backend_feature>>::_Vector_impl_data" }
%"struct.std::_Vector_base<ggml_backend_feature, std::allocator<ggml_backend_feature>>::_Vector_impl_data" = type { ptr, ptr, ptr }
%class.anon.8 = type { i8 }

@__dso_handle = external hidden global i8
@_ZZL29ggml_backend_cpu_get_featuresP16ggml_backend_regE8features = internal global %"class.std::vector.3" zeroinitializer, align 8
@_ZGVZL29ggml_backend_cpu_get_featuresP16ggml_backend_regE8features = internal global i64 0, align 8

; Function Attrs: mustprogress nounwind uwtable
define linkonce_odr noundef ptr @_ZNKSt6vectorI20ggml_backend_featureSaIS0_EE11_M_data_ptrIS0_EEPT_S5_(ptr noundef nonnull align 8 dereferenceable(24) %0, ptr noundef %1) #4 comdat align 2 {
  %3 = alloca ptr, align 8
  %4 = alloca ptr, align 8
  store ptr %0, ptr %3, align 8, !tbaa !168
  store ptr %1, ptr %4, align 8, !tbaa !174
  %5 = load ptr, ptr %4, align 8, !tbaa !174
  ret ptr %5
}

; Function Attrs: mustprogress nounwind uwtable
define linkonce_odr noundef ptr @_ZNSt6vectorI20ggml_backend_featureSaIS0_EE4dataEv(ptr noundef nonnull align 8 dereferenceable(24) %0) #4 comdat align 2 {
  %2 = alloca ptr, align 8
  store ptr %0, ptr %2, align 8, !tbaa !168
  %3 = load ptr, ptr %2, align 8
  %4 = getelementptr inbounds nuw %"struct.std::_Vector_base.4", ptr %3, i32 0, i32 0
  %5 = getelementptr inbounds nuw %"struct.std::_Vector_base<ggml_backend_feature, std::allocator<ggml_backend_feature>>::_Vector_impl_data", ptr %4, i32 0, i32 0
  %6 = load ptr, ptr %5, align 8, !tbaa !170
  %7 = call noundef ptr @_ZNKSt6vectorI20ggml_backend_featureSaIS0_EE11_M_data_ptrIS0_EEPT_S5_(ptr noundef nonnull align 8 dereferenceable(24) %3, ptr noundef %6) #1
  ret ptr %7
}

; Function Attrs: mustprogress uwtable
define internal noundef ptr @_ZL29ggml_backend_cpu_get_featuresP16ggml_backend_reg(ptr noundef %0) #0 personality ptr @__gxx_personality_v0 {
  %2 = alloca ptr, align 8
  %3 = alloca %class.anon.8, align 1
  %4 = alloca ptr, align 8
  %5 = alloca i32, align 4
  store ptr %0, ptr %2, align 8, !tbaa !89
  %6 = load atomic i8, ptr @_ZGVZL29ggml_backend_cpu_get_featuresP16ggml_backend_regE8features acquire, align 8
  %7 = icmp eq i8 %6, 0
  br i1 %7, label %8, label %14, !prof !4

8:                                                ; preds = %1
  %9 = call i32 @__cxa_guard_acquire(ptr @_ZGVZL29ggml_backend_cpu_get_featuresP16ggml_backend_regE8features) #1
  %10 = icmp ne i32 %9, 0
  br i1 %10, label %11, label %14

11:                                               ; preds = %8
  call void @llvm.lifetime.start.p0(i64 1, ptr %3) #1
  invoke void @"_ZZL29ggml_backend_cpu_get_featuresP16ggml_backend_regENK3$_0clEv"(ptr dead_on_unwind writable sret(%"class.std::vector.3") align 8 @_ZZL29ggml_backend_cpu_get_featuresP16ggml_backend_regE8features, ptr noundef nonnull align 1 dereferenceable(1) %3)
          to label %12 unwind label %16

12:                                               ; preds = %11
  call void @llvm.lifetime.end.p0(i64 1, ptr %3) #1
  %13 = call i32 @__cxa_atexit(ptr @_ZNSt6vectorI20ggml_backend_featureSaIS0_EED2Ev, ptr @_ZZL29ggml_backend_cpu_get_featuresP16ggml_backend_regE8features, ptr @__dso_handle) #1
  call void @__cxa_guard_release(ptr @_ZGVZL29ggml_backend_cpu_get_featuresP16ggml_backend_regE8features) #1
  br label %14

14:                                               ; preds = %12, %8, %1
  %15 = call noundef ptr @_ZNSt6vectorI20ggml_backend_featureSaIS0_EE4dataEv(ptr noundef nonnull align 8 dereferenceable(24) @_ZZL29ggml_backend_cpu_get_featuresP16ggml_backend_regE8features) #1
  ret ptr %15

16:                                               ; preds = %11
  %17 = landingpad { ptr, i32 }
          cleanup
  %18 = extractvalue { ptr, i32 } %17, 0
  store ptr %18, ptr %4, align 8
  %19 = extractvalue { ptr, i32 } %17, 1
  store i32 %19, ptr %5, align 4
  call void @llvm.lifetime.end.p0(i64 1, ptr %3) #1
  call void @__cxa_guard_abort(ptr @_ZGVZL29ggml_backend_cpu_get_featuresP16ggml_backend_regE8features) #1
  br label %20

20:                                               ; preds = %16
  %21 = load ptr, ptr %4, align 8
  %22 = load i32, ptr %5, align 4
  %23 = insertvalue { ptr, i32 } poison, ptr %21, 0
  %24 = insertvalue { ptr, i32 } %23, i32 %22, 1
  resume { ptr, i32 } %24
}