; Function Attrs: mustprogress uwtable
define internal noundef ptr @_ZL29ggml_backend_cpu_get_featuresP16ggml_backend_reg(ptr readnone captures(none) %0) #0 personality ptr @__gxx_personality_v0 {
  %2 = load atomic i8, ptr @_ZGVZL29ggml_backend_cpu_get_featuresP16ggml_backend_regE8features acquire, align 8
  %3 = icmp eq i8 %2, 0
  br i1 %3, label %4, label %9, !prof !4

4:                                                ; preds = %1
  %5 = tail call i32 @__cxa_guard_acquire(ptr nonnull @_ZGVZL29ggml_backend_cpu_get_featuresP16ggml_backend_regE8features) #25
  %.not = icmp eq i32 %5, 0
  br i1 %.not, label %9, label %6

6:                                                ; preds = %4
  invoke fastcc void @"_ZZL29ggml_backend_cpu_get_featuresP16ggml_backend_regENK3$_0clEv"()
          to label %7 unwind label %11

7:                                                ; preds = %6
  %8 = tail call i32 @__cxa_atexit(ptr nonnull @_ZNSt6vectorI20ggml_backend_featureSaIS0_EED2Ev, ptr nonnull @_ZZL29ggml_backend_cpu_get_featuresP16ggml_backend_regE8features, ptr nonnull @__dso_handle) #25
  tail call void @__cxa_guard_release(ptr nonnull @_ZGVZL29ggml_backend_cpu_get_featuresP16ggml_backend_regE8features) #25
  br label %9

9:                                                ; preds = %7, %4, %1
  %10 = load ptr, ptr @_ZZL29ggml_backend_cpu_get_featuresP16ggml_backend_regE8features, align 8, !tbaa !104
  ret ptr %10

11:                                               ; preds = %6
  %12 = landingpad { ptr, i32 }
          cleanup
  tail call void @__cxa_guard_abort(ptr nonnull @_ZGVZL29ggml_backend_cpu_get_featuresP16ggml_backend_regE8features) #25
  resume { ptr, i32 } %12
}